target datalayout = "e-m:e-p270:32:32-p271:32:32-p272:64:64-i64:64-i128:128-f80:128-n8:16:32:64-S128"
target triple = "x86_64-pc-linux-gnu"

%class.Node = type <{ ptr, ptr, ptr, i32, i32, i32, i32, i32, i32, i32, [4 x i8] }>
%class.Phase = type { i32, ptr }
%class.Node_Array = type { ptr, i32, ptr }
%class.PhaseTransform = type { ptr, %class.Phase }
%class.Node_List = type <{ %class.Node_Array, i32, [4 x i8] }>
%class.PhasePeephole = type { %class.PhaseTransform, ptr, ptr }
%class.PhaseCFG = type { %class.Phase, ptr, ptr, %class.Block_List, i32, ptr, ptr, i8, ptr, %class.Block_Array, ptr, double, ptr, ptr }
%class.Block_List = type <{ %class.Block_Array, i32, [4 x i8] }>
%class.Block_Array = type { i32, ptr, ptr }
%class.Block = type { %class.CFGElement, %class.Node_List, %class.Block_Array, i32, i32, i32, ptr, ptr, i32, i32, i32, i32, i32, i32, i32, i32, i8, i32 }
%class.CFGElement = type { ptr, double }

; Function Attrs: mustprogress nounwind uwtable
define linkonce_odr hidden noundef ptr @_ZNK10Node_ArrayixEj(ptr noundef nonnull align 8 dereferenceable(24) %0, i32 noundef %1) #1 comdat align 2 {
  %3 = alloca ptr, align 8
  %4 = alloca i32, align 4
  store ptr %0, ptr %3, align 8
  store i32 %1, ptr %4, align 4
  %5 = load ptr, ptr %3, align 8
  %6 = load i32, ptr %4, align 4
  %7 = getelementptr inbounds %class.Node_Array, ptr %5, i32 0, i32 1
  %8 = load i32, ptr %7, align 8
  %9 = icmp ult i32 %6, %8
  br i1 %9, label %10, label %17

10:                                               ; preds = %2
  %11 = getelementptr inbounds %class.Node_Array, ptr %5, i32 0, i32 2
  %12 = load ptr, ptr %11, align 8
  %13 = load i32, ptr %4, align 4
  %14 = zext i32 %13 to i64
  %15 = getelementptr inbounds ptr, ptr %12, i64 %14
  %16 = load ptr, ptr %15, align 8
  br label %18

17:                                               ; preds = %2
  br label %18

18:                                               ; preds = %17, %10
  %19 = phi ptr [ %16, %10 ], [ null, %17 ]
  ret ptr %19
}

; Function Attrs: mustprogress nounwind uwtable
define linkonce_odr hidden noundef i32 @_ZNK9Node_List4sizeEv(ptr noundef nonnull align 8 dereferenceable(28) %0) #1 comdat align 2 {
  %2 = alloca ptr, align 8
  store ptr %0, ptr %2, align 8
  %3 = load ptr, ptr %2, align 8
  %4 = getelementptr inbounds %class.Node_List, ptr %3, i32 0, i32 1
  %5 = load i32, ptr %4, align 8
  ret i32 %5
}

; Function Attrs: mustprogress nounwind uwtable
define linkonce_odr hidden noundef ptr @_ZNK11Block_ArrayixEj(ptr noundef nonnull align 8 dereferenceable(24) %0, i32 noundef %1) #1 comdat align 2 {
  %3 = alloca ptr, align 8
  %4 = alloca i32, align 4
  store ptr %0, ptr %3, align 8
  store i32 %1, ptr %4, align 4
  %5 = load ptr, ptr %3, align 8
  %6 = getelementptr inbounds %class.Block_Array, ptr %5, i32 0, i32 2
  %7 = load ptr, ptr %6, align 8
  %8 = load i32, ptr %4, align 4
  %9 = zext i32 %8 to i64
  %10 = getelementptr inbounds ptr, ptr %7, i64 %9
  %11 = load ptr, ptr %10, align 8
  ret ptr %11
}

; Function Attrs: mustprogress nounwind uwtable
define linkonce_odr hidden noundef ptr @_ZNK4Node7as_MachEv(ptr noundef nonnull align 8 dereferenceable(52) %0) #1 comdat align 2 {
  %2 = alloca ptr, align 8
  store ptr %0, ptr %2, align 8
  %3 = load ptr, ptr %2, align 8
  ret ptr %3
}

; Function Attrs: mustprogress nounwind uwtable
define linkonce_odr hidden noundef zeroext i1 @_ZNK4Node7is_MachEv(ptr noundef nonnull align 8 dereferenceable(52) %0) #1 comdat align 2 {
  %2 = alloca ptr, align 8
  store ptr %0, ptr %2, align 8
  %3 = load ptr, ptr %2, align 8
  %4 = getelementptr inbounds %class.Node, ptr %3, i32 0, i32 8
  %5 = load i32, ptr %4, align 4
  %6 = and i32 %5, 3
  %7 = icmp eq i32 %6, 2
  ret i1 %7
}

; Function Attrs: mustprogress nounwind uwtable
define linkonce_odr hidden noundef ptr @_ZNK5Block8get_nodeEj(ptr noundef nonnull align 8 dereferenceable(144) %0, i32 noundef %1) #1 comdat align 2 {
  %3 = alloca ptr, align 8
  %4 = alloca i32, align 4
  store ptr %0, ptr %3, align 8
  store i32 %1, ptr %4, align 4
  %5 = load ptr, ptr %3, align 8
  %6 = getelementptr inbounds %class.Block, ptr %5, i32 0, i32 1
  %7 = load i32, ptr %4, align 4
  %8 = call noundef ptr @_ZNK10Node_ArrayixEj(ptr noundef nonnull align 8 dereferenceable(24) %6, i32 noundef %7)
  ret ptr %8
}

; Function Attrs: mustprogress nounwind uwtable
define linkonce_odr hidden noundef i32 @_ZNK5Block15number_of_nodesEv(ptr noundef nonnull align 8 dereferenceable(144) %0) #1 comdat align 2 {
  %2 = alloca ptr, align 8
  store ptr %0, ptr %2, align 8
  %3 = load ptr, ptr %2, align 8
  %4 = getelementptr inbounds %class.Block, ptr %3, i32 0, i32 1
  %5 = call noundef i32 @_ZNK9Node_List4sizeEv(ptr noundef nonnull align 8 dereferenceable(28) %4)
  ret i32 %5
}

; Function Attrs: mustprogress nounwind uwtable
define linkonce_odr hidden noundef ptr @_ZNK8PhaseCFG9get_blockEj(ptr noundef nonnull align 8 dereferenceable(160) %0, i32 noundef %1) #1 comdat align 2 {
  %3 = alloca ptr, align 8
  %4 = alloca i32, align 4
  store ptr %0, ptr %3, align 8
  store i32 %1, ptr %4, align 4
  %5 = load ptr, ptr %3, align 8
  %6 = getelementptr inbounds %class.PhaseCFG, ptr %5, i32 0, i32 3
  %7 = load i32, ptr %4, align 4
  %8 = call noundef ptr @_ZNK11Block_ArrayixEj(ptr noundef nonnull align 8 dereferenceable(24) %6, i32 noundef %7)
  ret ptr %8
}

; Function Attrs: mustprogress nounwind uwtable
define linkonce_odr hidden noundef i32 @_ZNK8PhaseCFG16number_of_blocksEv(ptr noundef nonnull align 8 dereferenceable(160) %0) #1 comdat align 2 {
  %2 = alloca ptr, align 8
  store ptr %0, ptr %2, align 8
  %3 = load ptr, ptr %2, align 8
  %4 = getelementptr inbounds %class.PhaseCFG, ptr %3, i32 0, i32 4
  %5 = load i32, ptr %4, align 8
  ret i32 %5
}

; Function Attrs: mustprogress nounwind uwtable
define hidden void @_ZN13PhasePeephole12do_transformEv(ptr noundef nonnull align 8 dereferenceable(40) %0) #1 align 2 {
  %2 = alloca ptr, align 8
  %3 = alloca i8, align 1
  %4 = alloca i32, align 4
  %5 = alloca ptr, align 8
  %6 = alloca i8, align 1
  %7 = alloca i8, align 1
  %8 = alloca i32, align 4
  %9 = alloca i32, align 4
  %10 = alloca ptr, align 8
  %11 = alloca ptr, align 8
  %12 = alloca i32, align 4
  store ptr %0, ptr %2, align 8
  %13 = load ptr, ptr %2, align 8
  store i8 1, ptr %3, align 1
  store i32 1, ptr %4, align 4
  br label %14

14:                                               ; preds = %66, %1
  %15 = load i32, ptr %4, align 4
  %16 = getelementptr inbounds %class.PhasePeephole, ptr %13, i32 0, i32 2
  %17 = load ptr, ptr %16, align 8
  %18 = call noundef i32 @_ZNK8PhaseCFG16number_of_blocksEv(ptr noundef nonnull align 8 dereferenceable(160) %17)
  %19 = icmp ult i32 %15, %18
  br i1 %19, label %20, label %69

20:                                               ; preds = %14
  %21 = getelementptr inbounds %class.PhasePeephole, ptr %13, i32 0, i32 2
  %22 = load ptr, ptr %21, align 8
  %23 = load i32, ptr %4, align 4
  %24 = call noundef ptr @_ZNK8PhaseCFG9get_blockEj(ptr noundef nonnull align 8 dereferenceable(160) %22, i32 noundef %23)
  store ptr %24, ptr %5, align 8
  store i8 1, ptr %6, align 1
  store i8 1, ptr %7, align 1
  br label %25

25:                                               ; preds = %64, %20
  %26 = load i8, ptr %7, align 1
  %27 = trunc i8 %26 to i1
  br i1 %27, label %28, label %65

28:                                               ; preds = %25
  store i8 0, ptr %7, align 1
  %29 = load ptr, ptr %5, align 8
  %30 = call noundef i32 @_ZNK5Block15number_of_nodesEv(ptr noundef nonnull align 8 dereferenceable(144) %29)
  store i32 %30, ptr %8, align 4
  %31 = load i32, ptr %8, align 4
  %32 = sub i32 %31, 1
  store i32 %32, ptr %9, align 4
  br label %33

33:                                               ; preds = %61, %28
  %34 = load i32, ptr %9, align 4
  %35 = icmp ugt i32 %34, 0
  br i1 %35, label %36, label %64

36:                                               ; preds = %33
  %37 = load ptr, ptr %5, align 8
  %38 = load i32, ptr %9, align 4
  %39 = call noundef ptr @_ZNK5Block8get_nodeEj(ptr noundef nonnull align 8 dereferenceable(144) %37, i32 noundef %38)
  store ptr %39, ptr %10, align 8
  %40 = load ptr, ptr %10, align 8
  %41 = call noundef zeroext i1 @_ZNK4Node7is_MachEv(ptr noundef nonnull align 8 dereferenceable(52) %40)
  br i1 %41, label %42, label %60

42:                                               ; preds = %36
  %43 = load ptr, ptr %10, align 8
  %44 = call noundef ptr @_ZNK4Node7as_MachEv(ptr noundef nonnull align 8 dereferenceable(52) %43)
  store ptr %44, ptr %11, align 8
  %45 = load ptr, ptr %11, align 8
  %46 = load ptr, ptr %5, align 8
  %47 = load i32, ptr %9, align 4
  %48 = getelementptr inbounds %class.PhasePeephole, ptr %13, i32 0, i32 2
  %49 = load ptr, ptr %48, align 8
  %50 = getelementptr inbounds %class.PhasePeephole, ptr %13, i32 0, i32 1
  %51 = load ptr, ptr %50, align 8
  %52 = load ptr, ptr %45, align 8
  %53 = getelementptr inbounds ptr, ptr %52, i64 40
  %54 = load ptr, ptr %53, align 8
  %55 = call noundef i32 %54(ptr noundef nonnull align 8 dereferenceable(64) %45, ptr noundef %46, i32 noundef %47, ptr noundef %49, ptr noundef %51)
  store i32 %55, ptr %12, align 4
  %56 = load i32, ptr %12, align 4
  %57 = icmp ne i32 %56, -1
  br i1 %57, label %58, label %59

58:                                               ; preds = %42
  store i8 1, ptr %7, align 1
  br label %64

59:                                               ; preds = %42
  br label %60

60:                                               ; preds = %59, %36
  br label %61

61:                                               ; preds = %60
  %62 = load i32, ptr %9, align 4
  %63 = add i32 %62, -1
  store i32 %63, ptr %9, align 4
  br label %33, !llvm.loop !67

64:                                               ; preds = %58, %33
  br label %25, !llvm.loop !68

65:                                               ; preds = %25
  br label %66

66:                                               ; preds = %65
  %67 = load i32, ptr %4, align 4
  %68 = add i32 %67, 1
  store i32 %68, ptr %4, align 4
  br label %14, !llvm.loop !69

69:                                               ; preds = %14
  ret void
}