; Function Attrs: mustprogress nounwind uwtable
define hidden void @_ZN13PhasePeephole12do_transformEv(ptr nocapture noundef nonnull readonly align 8 dereferenceable(40) %0) local_unnamed_addr #0 align 2 {
  %2 = getelementptr inbounds i8, ptr %0, i64 32
  %3 = load ptr, ptr %2, align 8
  %4 = getelementptr inbounds i8, ptr %3, i64 64
  %5 = load i32, ptr %4, align 8
  %6 = icmp ugt i32 %5, 1
  br i1 %6, label %.critedge.lr.ph, label %._crit_edge

.critedge.lr.ph:                                  ; preds = %1
  %7 = getelementptr inbounds i8, ptr %0, i64 24
  br label %.critedge

.critedge:                                        ; preds = %.critedge.lr.ph, %.critedge19
  %indvars.iv = phi i64 [ 1, %.critedge.lr.ph ], [ %indvars.iv.next, %.critedge19 ]
  %8 = phi ptr [ %3, %.critedge.lr.ph ], [ %38, %.critedge19 ]
  %9 = getelementptr inbounds i8, ptr %8, i64 48
  %10 = load ptr, ptr %9, align 8
  %11 = getelementptr inbounds ptr, ptr %10, i64 %indvars.iv
  %12 = load ptr, ptr %11, align 8
  %13 = getelementptr inbounds i8, ptr %12, i64 40
  %14 = load i32, ptr %13, align 8
  %.0172125 = add i32 %14, -1
  %.not202226 = icmp eq i32 %.0172125, 0
  br i1 %.not202226, label %.critedge19, label %.lr.ph.lr.ph

.lr.ph.lr.ph:                                     ; preds = %.critedge
  %15 = getelementptr inbounds i8, ptr %12, i64 24
  %16 = getelementptr inbounds i8, ptr %12, i64 32
  br label %.lr.ph

.loopexit:                                        ; preds = %30
  %17 = load i32, ptr %13, align 8
  %.01721 = add i32 %17, -1
  %.not2022 = icmp eq i32 %.01721, 0
  br i1 %.not2022, label %.critedge19, label %.lr.ph.backedge

.lr.ph:                                           ; preds = %.lr.ph.backedge, %.lr.ph.lr.ph
  %.01723 = phi i32 [ %.0172125, %.lr.ph.lr.ph ], [ %.01723.be, %.lr.ph.backedge ]
  %18 = load i32, ptr %15, align 8
  %19 = icmp ugt i32 %18, %.01723
  br i1 %19, label %20, label %_ZNK5Block8get_nodeEj.exit

20:                                               ; preds = %.lr.ph
  %21 = load ptr, ptr %16, align 8
  %22 = zext i32 %.01723 to i64
  %23 = getelementptr inbounds ptr, ptr %21, i64 %22
  %24 = load ptr, ptr %23, align 8
  br label %_ZNK5Block8get_nodeEj.exit

_ZNK5Block8get_nodeEj.exit:                       ; preds = %.lr.ph, %20
  %25 = phi ptr [ %24, %20 ], [ null, %.lr.ph ]
  %26 = getelementptr inbounds i8, ptr %25, i64 44
  %27 = load i32, ptr %26, align 4
  %28 = and i32 %27, 3
  %29 = icmp eq i32 %28, 2
  br i1 %29, label %30, label %37

30:                                               ; preds = %_ZNK5Block8get_nodeEj.exit
  %31 = load ptr, ptr %2, align 8
  %32 = load ptr, ptr %7, align 8
  %33 = load ptr, ptr %25, align 8
  %34 = getelementptr inbounds i8, ptr %33, i64 320
  %35 = load ptr, ptr %34, align 8
  %36 = tail call noundef i32 %35(ptr noundef nonnull align 8 dereferenceable(64) %25, ptr noundef nonnull %12, i32 noundef %.01723, ptr noundef %31, ptr noundef %32) #16
  %.not = icmp eq i32 %36, -1
  br i1 %.not, label %37, label %.loopexit

37:                                               ; preds = %_ZNK5Block8get_nodeEj.exit, %30
  %.017 = add i32 %.01723, -1
  %.not20 = icmp eq i32 %.017, 0
  br i1 %.not20, label %.critedge19, label %.lr.ph.backedge

.lr.ph.backedge:                                  ; preds = %37, %.loopexit
  %.01723.be = phi i32 [ %.017, %37 ], [ %.01721, %.loopexit ]
  br label %.lr.ph, !llvm.loop !70

.critedge19:                                      ; preds = %.loopexit, %37, %.critedge
  %indvars.iv.next = add nuw nsw i64 %indvars.iv, 1
  %38 = load ptr, ptr %2, align 8
  %39 = getelementptr inbounds i8, ptr %38, i64 64
  %40 = load i32, ptr %39, align 8
  %41 = zext i32 %40 to i64
  %42 = icmp ult i64 %indvars.iv.next, %41
  br i1 %42, label %.critedge, label %._crit_edge, !llvm.loop !71

._crit_edge:                                      ; preds = %.critedge19, %1
  ret void
}